target datalayout = "e-m:e-p270:32:32-p271:32:32-p272:64:64-i64:64-i128:128-f80:128-n8:16:32:64-S128"
target triple = "x86_64-pc-linux-gnu"

@useHistory = internal global i8 0, align 1

; Function Attrs: nounwind uwtable
define dso_local void @pg_append_history(ptr noundef %0, ptr noundef %1) #0 {
  %3 = alloca ptr, align 8
  %4 = alloca ptr, align 8
  store ptr %0, ptr %3, align 8
  store ptr %1, ptr %4, align 8
  %5 = load i8, ptr @useHistory, align 1, !range !4, !noundef !5
  %6 = trunc i8 %5 to i1
  br i1 %6, label %7, label %29

7:                                                ; preds = %2
  %8 = load ptr, ptr %3, align 8
  %9 = icmp ne ptr %8, null
  br i1 %9, label %10, label %29

10:                                               ; preds = %7
  %11 = load ptr, ptr %4, align 8
  %12 = load ptr, ptr %3, align 8
  call void @appendPQExpBufferStr(ptr noundef %11, ptr noundef %12)
  %13 = load ptr, ptr %3, align 8
  %14 = getelementptr inbounds i8, ptr %13, i64 0
  %15 = load i8, ptr %14, align 1
  %16 = icmp ne i8 %15, 0
  br i1 %16, label %17, label %26

17:                                               ; preds = %10
  %18 = load ptr, ptr %3, align 8
  %19 = load ptr, ptr %3, align 8
  %20 = call i64 @strlen(ptr noundef %19) #6
  %21 = sub i64 %20, 1
  %22 = getelementptr inbounds nuw i8, ptr %18, i64 %21
  %23 = load i8, ptr %22, align 1
  %24 = sext i8 %23 to i32
  %25 = icmp ne i32 %24, 10
  br i1 %25, label %26, label %28

26:                                               ; preds = %17, %10
  %27 = load ptr, ptr %4, align 8
  call void @appendPQExpBufferChar(ptr noundef %27, i8 noundef signext 10)
  br label %28

28:                                               ; preds = %26, %17
  br label %29

29:                                               ; preds = %28, %7, %2
  ret void
}