; Function Attrs: nounwind uwtable
define dso_local void @pg_append_history(ptr noundef %0, ptr noundef %1) local_unnamed_addr #0 {
  %.b8 = load i1, ptr @useHistory, align 1
  %3 = icmp ne ptr %0, null
  %or.cond = and i1 %3, %.b8
  br i1 %or.cond, label %4, label %12

4:                                                ; preds = %2
  tail call void @appendPQExpBufferStr(ptr noundef %1, ptr noundef nonnull %0) #9
  %5 = load i8, ptr %0, align 1
  %.not = icmp eq i8 %5, 0
  br i1 %.not, label %11, label %6

6:                                                ; preds = %4
  %7 = tail call i64 @strlen(ptr noundef nonnull dereferenceable(1) %0) #10
  %8 = getelementptr i8, ptr %0, i64 %7
  %9 = getelementptr i8, ptr %8, i64 -1
  %10 = load i8, ptr %9, align 1
  %.not9 = icmp eq i8 %10, 10
  br i1 %.not9, label %12, label %11

11:                                               ; preds = %6, %4
  tail call void @appendPQExpBufferChar(ptr noundef %1, i8 noundef signext 10) #9
  br label %12

12:                                               ; preds = %6, %11, %2
  ret void
}